target datalayout = "e-m:e-p270:32:32-p271:32:32-p272:64:64-i64:64-i128:128-f80:128-n8:16:32:64-S128"
target triple = "x86_64-pc-linux-gnu"

%struct.ReplyParserCallbacks = type { ptr, ptr, ptr, ptr, ptr, ptr, ptr, ptr, ptr, ptr, ptr, ptr, ptr, ptr, ptr, ptr }
%struct.CallReply = type { ptr, ptr, ptr, i64, i32, i32, i64, %union.anon, ptr, ptr }
%union.anon = type { %struct.anon }
%struct.anon = type { ptr, ptr }
%struct.ReplyParser = type { ptr, %struct.ReplyParserCallbacks }

; Function Attrs: nounwind uwtable
define internal void @callReplyParse(ptr noundef %0) #0 {
  %2 = alloca ptr, align 8
  %3 = alloca %struct.ReplyParser, align 8
  store ptr %0, ptr %2, align 8, !tbaa !5
  %4 = load ptr, ptr %2, align 8, !tbaa !5
  %5 = getelementptr inbounds nuw %struct.CallReply, ptr %4, i32 0, i32 5
  %6 = load i32, ptr %5, align 4, !tbaa !10
  %7 = and i32 %6, 2
  %8 = icmp ne i32 %7, 0
  br i1 %8, label %9, label %10

9:                                                ; preds = %1
  br label %22

10:                                               ; preds = %1
  call void @llvm.lifetime.start.p0(i64 136, ptr %3) #6
  %11 = getelementptr inbounds nuw %struct.ReplyParser, ptr %3, i32 0, i32 0
  %12 = load ptr, ptr %2, align 8, !tbaa !5
  %13 = getelementptr inbounds nuw %struct.CallReply, ptr %12, i32 0, i32 2
  %14 = load ptr, ptr %13, align 8, !tbaa !28
  store ptr %14, ptr %11, align 8, !tbaa !29
  %15 = getelementptr inbounds nuw %struct.ReplyParser, ptr %3, i32 0, i32 1
  call void @llvm.memcpy.p0.p0.i64(ptr align 8 %15, ptr align 8 @DefaultParserCallbacks, i64 128, i1 false), !tbaa.struct !32
  %16 = load ptr, ptr %2, align 8, !tbaa !5
  %17 = call i32 @parseReply(ptr noundef %3, ptr noundef %16)
  %18 = load ptr, ptr %2, align 8, !tbaa !5
  %19 = getelementptr inbounds nuw %struct.CallReply, ptr %18, i32 0, i32 5
  %20 = load i32, ptr %19, align 4, !tbaa !10
  %21 = or i32 %20, 2
  store i32 %21, ptr %19, align 4, !tbaa !10
  call void @llvm.lifetime.end.p0(i64 136, ptr %3) #6
  br label %22

22:                                               ; preds = %10, %9
  ret void
}

; Function Attrs: nounwind uwtable
define dso_local double @callReplyGetDouble(ptr noundef %0) #0 {
  %2 = alloca double, align 8
  %3 = alloca ptr, align 8
  store ptr %0, ptr %3, align 8, !tbaa !5
  %4 = load ptr, ptr %3, align 8, !tbaa !5
  call void @callReplyParse(ptr noundef %4)
  %5 = load ptr, ptr %3, align 8, !tbaa !5
  %6 = getelementptr inbounds nuw %struct.CallReply, ptr %5, i32 0, i32 4
  %7 = load i32, ptr %6, align 8, !tbaa !16
  %8 = icmp ne i32 %7, 8
  br i1 %8, label %9, label %10

9:                                                ; preds = %1
  store double 0xC3E0000000000000, ptr %2, align 8
  br label %14

10:                                               ; preds = %1
  %11 = load ptr, ptr %3, align 8, !tbaa !5
  %12 = getelementptr inbounds nuw %struct.CallReply, ptr %11, i32 0, i32 7
  %13 = load double, ptr %12, align 8, !tbaa !21
  store double %13, ptr %2, align 8
  br label %14

14:                                               ; preds = %10, %9
  %15 = load double, ptr %2, align 8
  ret double %15
}